target datalayout = "e-m:e-p270:32:32-p271:32:32-p272:64:64-i64:64-i128:128-f80:128-n8:16:32:64-S128"
target triple = "x86_64-pc-linux-gnu"

%struct._zval_struct = type { %union._zend_value, %union.anon.9, %union.anon.12 }
%union._zend_value = type { i64 }
%union.anon.9 = type { i32 }
%union.anon.12 = type { i32 }
%struct._zend_op_array = type { i8, [3 x i8], i32, ptr, ptr, ptr, i32, i32, ptr, ptr, ptr, ptr, i32, i32, i32, i32, ptr, ptr, ptr, ptr, ptr, i32, i32, ptr, ptr, ptr, i32, i32, i32, i32, ptr, ptr, [6 x ptr] }
%struct._zend_refcounted_h = type { i32, %union.anon.0 }
%union.anon.0 = type { i32 }
%struct._zend_fcall_info_cache = type { ptr, ptr, ptr, ptr, ptr }
%struct.xml_parser = type { ptr, ptr, %struct._zval_struct, ptr, %struct._zend_fcall_info_cache, %struct._zend_fcall_info_cache, %struct._zend_fcall_info_cache, %struct._zend_fcall_info_cache, %struct._zend_fcall_info_cache, %struct._zend_fcall_info_cache, %struct._zend_fcall_info_cache, %struct._zend_fcall_info_cache, %struct._zend_fcall_info_cache, %struct._zend_fcall_info_cache, %struct._zval_struct, %struct._zval_struct, i32, i32, i32, ptr, ptr, i8, i8, i8, i8, i8, ptr, %struct._zend_object }
%struct._zend_object = type { %struct._zend_refcounted_h, i32, ptr, ptr, ptr, [1 x %struct._zval_struct] }
%struct._zend_refcounted = type { %struct._zend_refcounted_h }
%struct._zend_string = type { %struct._zend_refcounted_h, i64, i64, [1 x i8] }
%struct.anon.13 = type { i8, [3 x i8], i32, ptr, ptr, ptr, i32, i32, ptr, ptr, ptr, ptr, i32 }

; Function Attrs: nounwind uwtable
define internal i32 @_xml_xmlcharlen(ptr noundef %0) #0 {
  %2 = alloca ptr, align 8
  %3 = alloca i32, align 4
  store ptr %0, ptr %2, align 8
  store i32 0, ptr %3, align 4
  br label %4

4:                                                ; preds = %8, %1
  %5 = load ptr, ptr %2, align 8
  %6 = load i8, ptr %5, align 1
  %7 = icmp ne i8 %6, 0
  br i1 %7, label %8, label %13

8:                                                ; preds = %4
  %9 = load i32, ptr %3, align 4
  %10 = add nsw i32 %9, 1
  store i32 %10, ptr %3, align 4
  %11 = load ptr, ptr %2, align 8
  %12 = getelementptr inbounds i8, ptr %11, i32 1
  store ptr %12, ptr %2, align 8
  br label %4

13:                                               ; preds = %4
  %14 = load i32, ptr %3, align 4
  ret i32 %14
}

; Function Attrs: nounwind uwtable
define internal void @_xml_xmlchar_zval(ptr noundef %0, i32 noundef %1, ptr noundef %2, ptr noundef %3) #0 {
  %5 = alloca i32, align 4
  %6 = alloca ptr, align 8
  %7 = alloca i32, align 4
  %8 = alloca ptr, align 8
  %9 = alloca ptr, align 8
  %10 = alloca ptr, align 8
  %11 = alloca ptr, align 8
  store ptr %0, ptr %6, align 8
  store i32 %1, ptr %7, align 4
  store ptr %2, ptr %8, align 8
  store ptr %3, ptr %9, align 8
  %12 = load ptr, ptr %6, align 8
  %13 = icmp eq ptr %12, null
  br i1 %13, label %14, label %19

14:                                               ; preds = %4
  br label %15

15:                                               ; preds = %14
  %16 = load ptr, ptr %9, align 8
  %17 = getelementptr inbounds %struct._zval_struct, ptr %16, i32 0, i32 1
  store i32 2, ptr %17, align 8
  br label %18

18:                                               ; preds = %15
  br label %47

19:                                               ; preds = %4
  %20 = load i32, ptr %7, align 4
  %21 = icmp eq i32 %20, 0
  br i1 %21, label %22, label %25

22:                                               ; preds = %19
  %23 = load ptr, ptr %6, align 8
  %24 = call i32 @_xml_xmlcharlen(ptr noundef %23)
  store i32 %24, ptr %7, align 4
  br label %25

25:                                               ; preds = %22, %19
  br label %26

26:                                               ; preds = %25
  %27 = load ptr, ptr %9, align 8
  store ptr %27, ptr %10, align 8
  %28 = load ptr, ptr %6, align 8
  %29 = load i32, ptr %7, align 4
  %30 = sext i32 %29 to i64
  %31 = load ptr, ptr %8, align 8
  %32 = call ptr @xml_utf8_decode(ptr noundef %28, i64 noundef %30, ptr noundef %31)
  store ptr %32, ptr %11, align 8
  %33 = load ptr, ptr %11, align 8
  %34 = load ptr, ptr %10, align 8
  %35 = getelementptr inbounds %struct._zval_struct, ptr %34, i32 0, i32 0
  store ptr %33, ptr %35, align 8
  %36 = load ptr, ptr %11, align 8
  %37 = getelementptr inbounds %struct._zend_string, ptr %36, i32 0, i32 0
  %38 = getelementptr inbounds %struct._zend_refcounted_h, ptr %37, i32 0, i32 1
  %39 = load i32, ptr %38, align 4
  store i32 %39, ptr %5, align 4
  %40 = load i32, ptr %5, align 4
  %41 = and i32 %40, 1008
  %42 = and i32 %41, 64
  %43 = icmp ne i32 %42, 0
  %44 = select i1 %43, i32 6, i32 262
  %45 = load ptr, ptr %10, align 8
  %46 = getelementptr inbounds %struct._zval_struct, ptr %45, i32 0, i32 1
  store i32 %44, ptr %46, align 8
  br label %47

47:                                               ; preds = %26, %18
  ret void
}

; Function Attrs: nounwind uwtable
define hidden void @_xml_endNamespaceDeclHandler(ptr noundef %0, ptr noundef %1) #0 {
  %3 = alloca i32, align 4
  %4 = alloca ptr, align 8
  %5 = alloca i32, align 4
  %6 = alloca ptr, align 8
  %7 = alloca ptr, align 8
  %8 = alloca ptr, align 8
  %9 = alloca i32, align 4
  %10 = alloca ptr, align 8
  %11 = alloca ptr, align 8
  %12 = alloca ptr, align 8
  %13 = alloca ptr, align 8
  %14 = alloca ptr, align 8
  %15 = alloca ptr, align 8
  %16 = alloca ptr, align 8
  %17 = alloca [2 x %struct._zval_struct], align 16
  %18 = alloca ptr, align 8
  %19 = alloca ptr, align 8
  %20 = alloca ptr, align 8
  %21 = alloca i32, align 4
  store ptr %0, ptr %14, align 8
  store ptr %1, ptr %15, align 8
  %22 = load ptr, ptr %14, align 8
  store ptr %22, ptr %16, align 8
  %23 = load ptr, ptr %16, align 8
  %24 = icmp ne ptr %23, null
  br i1 %24, label %25, label %31

25:                                               ; preds = %2
  %26 = load ptr, ptr %16, align 8
  %27 = getelementptr inbounds %struct.xml_parser, ptr %26, i32 0, i32 13
  %28 = getelementptr inbounds %struct._zend_fcall_info_cache, ptr %27, i32 0, i32 0
  %29 = load ptr, ptr %28, align 8
  %30 = icmp ne ptr %29, null
  br i1 %30, label %32, label %31

31:                                               ; preds = %25, %2
  br label %113

32:                                               ; preds = %25
  br label %33

33:                                               ; preds = %32
  %34 = getelementptr inbounds [2 x %struct._zval_struct], ptr %17, i64 0, i64 0
  store ptr %34, ptr %18, align 8
  %35 = load ptr, ptr %16, align 8
  %36 = getelementptr inbounds %struct.xml_parser, ptr %35, i32 0, i32 2
  store ptr %36, ptr %19, align 8
  %37 = load ptr, ptr %19, align 8
  %38 = getelementptr inbounds %struct._zval_struct, ptr %37, i32 0, i32 0
  %39 = load ptr, ptr %38, align 8
  store ptr %39, ptr %20, align 8
  %40 = load ptr, ptr %19, align 8
  %41 = getelementptr inbounds %struct._zval_struct, ptr %40, i32 0, i32 1
  %42 = load i32, ptr %41, align 8
  store i32 %42, ptr %21, align 4
  br label %43

43:                                               ; preds = %33
  %44 = load ptr, ptr %20, align 8
  %45 = load ptr, ptr %18, align 8
  %46 = getelementptr inbounds %struct._zval_struct, ptr %45, i32 0, i32 0
  store ptr %44, ptr %46, align 8
  %47 = load i32, ptr %21, align 4
  %48 = load ptr, ptr %18, align 8
  %49 = getelementptr inbounds %struct._zval_struct, ptr %48, i32 0, i32 1
  store i32 %47, ptr %49, align 8
  br label %50

50:                                               ; preds = %43
  %51 = load i32, ptr %21, align 4
  %52 = and i32 %51, 65280
  %53 = icmp ne i32 %52, 0
  br i1 %53, label %54, label %60

54:                                               ; preds = %50
  %55 = load ptr, ptr %20, align 8
  %56 = getelementptr inbounds %struct._zend_refcounted, ptr %55, i32 0, i32 0
  store ptr %56, ptr %13, align 8
  %57 = load ptr, ptr %13, align 8
  %58 = load i32, ptr %57, align 4
  %59 = add i32 %58, 1
  store i32 %59, ptr %57, align 4
  br label %60

60:                                               ; preds = %54, %50
  br label %61

61:                                               ; preds = %60
  %62 = load ptr, ptr %15, align 8
  %63 = load ptr, ptr %16, align 8
  %64 = getelementptr inbounds %struct.xml_parser, ptr %63, i32 0, i32 1
  %65 = load ptr, ptr %64, align 8
  %66 = getelementptr inbounds [2 x %struct._zval_struct], ptr %17, i64 0, i64 1
  call void @_xml_xmlchar_zval(ptr noundef %62, i32 noundef 0, ptr noundef %65, ptr noundef %66)
  %67 = load ptr, ptr %16, align 8
  %68 = getelementptr inbounds %struct.xml_parser, ptr %67, i32 0, i32 13
  %69 = getelementptr inbounds [2 x %struct._zval_struct], ptr %17, i64 0, i64 0
  store ptr %68, ptr %7, align 8
  store ptr null, ptr %8, align 8
  store i32 2, ptr %9, align 4
  store ptr %69, ptr %10, align 8
  store ptr null, ptr %11, align 8
  %70 = load ptr, ptr %7, align 8
  %71 = load ptr, ptr %70, align 8
  store ptr %71, ptr %12, align 8
  %72 = load ptr, ptr %12, align 8
  %73 = getelementptr inbounds %struct.anon.13, ptr %72, i32 0, i32 2
  %74 = load i32, ptr %73, align 4
  %75 = and i32 %74, 262144
  %76 = icmp ne i32 %75, 0
  br i1 %76, label %77, label %99

77:                                               ; preds = %61
  %78 = call noalias ptr @_emalloc_256() #11
  store ptr %78, ptr %12, align 8
  %79 = load ptr, ptr %12, align 8
  %80 = load ptr, ptr %7, align 8
  %81 = load ptr, ptr %80, align 8
  call void @llvm.memcpy.p0.p0.i64(ptr align 8 %79, ptr align 8 %81, i64 240, i1 false)
  %82 = load ptr, ptr %12, align 8
  %83 = getelementptr inbounds %struct._zend_op_array, ptr %82, i32 0, i32 3
  %84 = load ptr, ptr %83, align 8
  store ptr %84, ptr %6, align 8
  %85 = load ptr, ptr %6, align 8
  %86 = getelementptr inbounds %struct._zend_refcounted_h, ptr %85, i32 0, i32 1
  %87 = load i32, ptr %86, align 4
  store i32 %87, ptr %3, align 4
  %88 = load i32, ptr %3, align 4
  %89 = and i32 %88, 1008
  %90 = and i32 %89, 64
  %91 = icmp ne i32 %90, 0
  br i1 %91, label %97, label %92

92:                                               ; preds = %77
  %93 = load ptr, ptr %6, align 8
  store ptr %93, ptr %4, align 8
  %94 = load ptr, ptr %4, align 8
  %95 = load i32, ptr %94, align 4
  %96 = add i32 %95, 1
  store i32 %96, ptr %94, align 4
  store i32 %96, ptr %5, align 4
  br label %98

97:                                               ; preds = %77
  store i32 1, ptr %5, align 4
  br label %98

98:                                               ; preds = %97, %92
  br label %99

99:                                               ; preds = %98, %61
  %100 = load ptr, ptr %12, align 8
  %101 = load ptr, ptr %7, align 8
  %102 = getelementptr inbounds %struct._zend_fcall_info_cache, ptr %101, i32 0, i32 3
  %103 = load ptr, ptr %102, align 8
  %104 = load ptr, ptr %7, align 8
  %105 = getelementptr inbounds %struct._zend_fcall_info_cache, ptr %104, i32 0, i32 2
  %106 = load ptr, ptr %105, align 8
  %107 = load ptr, ptr %8, align 8
  %108 = load i32, ptr %9, align 4
  %109 = load ptr, ptr %10, align 8
  %110 = load ptr, ptr %11, align 8
  call void @zend_call_known_function(ptr noundef %100, ptr noundef %103, ptr noundef %106, ptr noundef %107, i32 noundef %108, ptr noundef %109, ptr noundef %110) #11
  %111 = getelementptr inbounds [2 x %struct._zval_struct], ptr %17, i64 0, i64 0
  call void @zval_ptr_dtor(ptr noundef %111)
  %112 = getelementptr inbounds [2 x %struct._zval_struct], ptr %17, i64 0, i64 1
  call void @zval_ptr_dtor(ptr noundef %112)
  br label %113

113:                                              ; preds = %99, %31
  ret void
}