; Function Attrs: nounwind uwtable
define hidden void @_xml_endNamespaceDeclHandler(ptr noundef readonly %0, ptr noundef %1) #0 {
  %3 = alloca [2 x %struct._zval_struct], align 16
  %.not = icmp eq ptr %0, null
  br i1 %.not, label %54, label %4

4:                                                ; preds = %2
  %5 = getelementptr inbounds i8, ptr %0, i64 400
  %6 = load ptr, ptr %5, align 8
  %.not32 = icmp eq ptr %6, null
  br i1 %.not32, label %54, label %7

7:                                                ; preds = %4
  %8 = getelementptr inbounds i8, ptr %0, i64 16
  %9 = load ptr, ptr %8, align 8
  %10 = getelementptr inbounds i8, ptr %0, i64 24
  %11 = load i32, ptr %10, align 8
  store ptr %9, ptr %3, align 16
  %12 = getelementptr inbounds i8, ptr %3, i64 8
  store i32 %11, ptr %12, align 8
  %13 = and i32 %11, 65280
  %.not33 = icmp eq i32 %13, 0
  br i1 %.not33, label %17, label %14

14:                                               ; preds = %7
  %15 = load i32, ptr %9, align 4
  %16 = add i32 %15, 1
  store i32 %16, ptr %9, align 4
  br label %17

17:                                               ; preds = %7, %14
  %18 = getelementptr inbounds i8, ptr %0, i64 8
  %19 = load ptr, ptr %18, align 8
  %20 = getelementptr inbounds i8, ptr %3, i64 16
  %21 = icmp eq ptr %1, null
  br i1 %21, label %_xml_xmlchar_zval.exit, label %22

22:                                               ; preds = %17
  %23 = load i8, ptr %1, align 1
  %.not4.i.i = icmp eq i8 %23, 0
  br i1 %.not4.i.i, label %_xml_xmlcharlen.exit.i, label %.lr.ph.i.i

.lr.ph.i.i:                                       ; preds = %22, %.lr.ph.i.i
  %.06.i.i = phi i32 [ %24, %.lr.ph.i.i ], [ 0, %22 ]
  %.035.i.i = phi ptr [ %25, %.lr.ph.i.i ], [ %1, %22 ]
  %24 = add nuw nsw i32 %.06.i.i, 1
  %25 = getelementptr inbounds i8, ptr %.035.i.i, i64 1
  %26 = load i8, ptr %25, align 1
  %.not.i.i = icmp eq i8 %26, 0
  br i1 %.not.i.i, label %_xml_xmlcharlen.exit.i.loopexit, label %.lr.ph.i.i

_xml_xmlcharlen.exit.i.loopexit:                  ; preds = %.lr.ph.i.i
  %27 = zext nneg i32 %24 to i64
  br label %_xml_xmlcharlen.exit.i

_xml_xmlcharlen.exit.i:                           ; preds = %_xml_xmlcharlen.exit.i.loopexit, %22
  %.0.i = phi i64 [ 0, %22 ], [ %27, %_xml_xmlcharlen.exit.i.loopexit ]
  %28 = tail call fastcc ptr @xml_utf8_decode(ptr noundef nonnull %1, i64 noundef %.0.i, ptr noundef %19)
  store ptr %28, ptr %20, align 16
  %29 = getelementptr inbounds i8, ptr %28, i64 4
  %30 = load i32, ptr %29, align 4
  %31 = and i32 %30, 64
  %.not.i = icmp eq i32 %31, 0
  %32 = select i1 %.not.i, i32 262, i32 6
  br label %_xml_xmlchar_zval.exit

_xml_xmlchar_zval.exit:                           ; preds = %17, %_xml_xmlcharlen.exit.i
  %.sink.i = phi i32 [ %32, %_xml_xmlcharlen.exit.i ], [ 2, %17 ]
  %33 = getelementptr inbounds i8, ptr %3, i64 24
  store i32 %.sink.i, ptr %33, align 8
  %34 = load ptr, ptr %5, align 8
  %35 = getelementptr inbounds i8, ptr %34, i64 4
  %36 = load i32, ptr %35, align 4
  %37 = and i32 %36, 262144
  %.not34 = icmp eq i32 %37, 0
  br i1 %.not34, label %49, label %38

38:                                               ; preds = %_xml_xmlchar_zval.exit
  %39 = tail call noalias ptr @_emalloc_256() #16
  %40 = load ptr, ptr %5, align 8
  tail call void @llvm.memcpy.p0.p0.i64(ptr noundef nonnull align 8 dereferenceable(240) %39, ptr noundef nonnull align 8 dereferenceable(240) %40, i64 240, i1 false)
  %41 = getelementptr inbounds i8, ptr %39, i64 8
  %42 = load ptr, ptr %41, align 8
  %43 = getelementptr inbounds i8, ptr %42, i64 4
  %44 = load i32, ptr %43, align 4
  %45 = and i32 %44, 64
  %.not35 = icmp eq i32 %45, 0
  br i1 %.not35, label %46, label %49

46:                                               ; preds = %38
  %47 = load i32, ptr %42, align 4
  %48 = add i32 %47, 1
  store i32 %48, ptr %42, align 4
  br label %49

49:                                               ; preds = %38, %46, %_xml_xmlchar_zval.exit
  %.0 = phi ptr [ %39, %46 ], [ %34, %_xml_xmlchar_zval.exit ], [ %39, %38 ]
  %50 = getelementptr inbounds i8, ptr %0, i64 424
  %51 = load ptr, ptr %50, align 8
  %52 = getelementptr inbounds i8, ptr %0, i64 416
  %53 = load ptr, ptr %52, align 8
  call void @zend_call_known_function(ptr noundef nonnull %.0, ptr noundef %51, ptr noundef %53, ptr noundef null, i32 noundef 2, ptr noundef nonnull %3, ptr noundef null) #16
  call void @zval_ptr_dtor(ptr noundef nonnull %3) #16
  call void @zval_ptr_dtor(ptr noundef nonnull %20) #16
  br label %54

54:                                               ; preds = %2, %4, %49
  ret void
}